target datalayout = "e-m:e-p270:32:32-p271:32:32-p272:64:64-i64:64-i128:128-f80:128-n8:16:32:64-S128"
target triple = "x86_64-unknown-linux-gnu"

%struct.MigrationIncomingState = type { ptr, [2 x ptr], ptr, ptr, %struct.QemuSemaphore, %struct.QemuEvent, %struct.AnnounceTimer, i64, i8, %struct.QemuThread, i8, i8, %struct.QemuThread, i32, i32, ptr, %struct.QemuMutex, ptr, i32, ptr, %struct.QemuSemaphore, %struct.QemuThread, i32, %struct.QemuMutex, ptr, ptr, ptr, ptr, i32, ptr, ptr, %struct.QemuSemaphore, ptr, %struct.QemuSemaphore, %struct.QemuSemaphore, %struct.QemuSemaphore, ptr, ptr, i32, %struct.QemuMutex, %struct.QemuCond, i32 }
%struct.QemuEvent = type { i32, i8 }
%struct.AnnounceTimer = type { ptr, %struct.AnnounceParameters, i32, i32 }
%struct.AnnounceParameters = type { i64, i64, i64, i64, i8, ptr, ptr }
%struct.QemuThread = type { i64 }
%struct.QemuSemaphore = type { %struct.QemuMutex, %struct.QemuCond, i32 }
%struct.QemuMutex = type { %union.pthread_mutex_t, i8 }
%union.pthread_mutex_t = type { %struct.__pthread_mutex_s }
%struct.__pthread_mutex_s = type { i32, i32, i32, i32, i32, i16, i16, %struct.__pthread_internal_list }
%struct.__pthread_internal_list = type { ptr, ptr }
%struct.QemuCond = type { %union.pthread_cond_t, i8 }
%union.pthread_cond_t = type { %struct.__pthread_cond_s }
%struct.__pthread_cond_s = type { %union.__atomic_wide_counter, %union.__atomic_wide_counter, [2 x i32], [2 x i32], i32, i32, [2 x i32] }
%union.__atomic_wide_counter = type { i64 }
%struct.QemuLockable = type { ptr, ptr, ptr }
%struct.timeval = type { i64, i64 }

@.str.2 = private unnamed_addr constant [30 x i8] c"../qemu/migration/migration.c\00", align 1
@.str.7 = private unnamed_addr constant [17 x i8] c"rbname_len < 256\00", align 1
@__PRETTY_FUNCTION__.migrate_send_rp_message_req_pages = private unnamed_addr constant [88 x i8] c"int migrate_send_rp_message_req_pages(MigrationIncomingState *, RAMBlock *, ram_addr_t)\00", align 1
@trace_events_enabled_count = external global i32, align 4
@message_with_timestamp = external global i8, align 1
@qemu_loglevel = external global i32, align 4
@_TRACE_POSTCOPY_PAGE_REQ_ADD_DSTATE = external global i16, align 2
@.str.54 = private unnamed_addr constant [61 x i8] c"%d@%zu.%06zu:postcopy_page_req_add new page req %p total %d\0A\00", align 1
@.str.55 = private unnamed_addr constant [48 x i8] c"postcopy_page_req_add new page req %p total %d\0A\00", align 1

; Function Attrs: nounwind sspstrong uwtable
define internal zeroext i1 @qemu_loglevel_mask(i32 noundef %mask) #0 {
entry:
  %mask.addr = alloca i32, align 4
  store i32 %mask, ptr %mask.addr, align 4
  %0 = load i32, ptr @qemu_loglevel, align 4
  %1 = load i32, ptr %mask.addr, align 4
  %and = and i32 %0, %1
  %cmp = icmp ne i32 %and, 0
  ret i1 %cmp
}

; Function Attrs: nounwind sspstrong uwtable
define internal i32 @cpu_to_be32(i32 noundef %v) #0 {
entry:
  %v.addr = alloca i32, align 4
  store i32 %v, ptr %v.addr, align 4
  %0 = load i32, ptr %v.addr, align 4
  %1 = call i32 @llvm.bswap.i32(i32 %0)
  ret i32 %1
}

; Function Attrs: nounwind sspstrong uwtable
define internal i64 @cpu_to_be64(i64 noundef %v) #0 {
entry:
  %v.addr = alloca i64, align 8
  store i64 %v, ptr %v.addr, align 8
  %0 = load i64, ptr %v.addr, align 8
  %1 = call i64 @llvm.bswap.i64(i64 %0)
  ret i64 %1
}

; Function Attrs: nounwind sspstrong uwtable
define internal void @qemu_lockable_unlock(ptr noundef %x) #0 {
entry:
  %x.addr = alloca ptr, align 8
  store ptr %x, ptr %x.addr, align 8
  %0 = load ptr, ptr %x.addr, align 8
  %unlock = getelementptr inbounds %struct.QemuLockable, ptr %0, i32 0, i32 2
  %1 = load ptr, ptr %unlock, align 8
  %2 = load ptr, ptr %x.addr, align 8
  %object = getelementptr inbounds %struct.QemuLockable, ptr %2, i32 0, i32 0
  %3 = load ptr, ptr %object, align 8
  call void %1(ptr noundef %3)
  ret void
}

; Function Attrs: nounwind sspstrong uwtable
define internal void @_nocheck__trace_postcopy_page_req_add(ptr noundef %addr, i32 noundef %count) #0 {
entry:
  %addr.addr = alloca ptr, align 8
  %count.addr = alloca i32, align 4
  %_now = alloca %struct.timeval, align 8
  store ptr %addr, ptr %addr.addr, align 8
  store i32 %count, ptr %count.addr, align 4
  %0 = load i32, ptr @trace_events_enabled_count, align 4
  %tobool = icmp ne i32 %0, 0
  %lnot = xor i1 %tobool, true
  %lnot1 = xor i1 %lnot, true
  %lnot.ext = zext i1 %lnot1 to i32
  %conv = sext i32 %lnot.ext to i64
  %tobool2 = icmp ne i64 %conv, 0
  br i1 %tobool2, label %land.lhs.true, label %if.end11

land.lhs.true:                                    ; preds = %entry
  %1 = load i16, ptr @_TRACE_POSTCOPY_PAGE_REQ_ADD_DSTATE, align 2
  %conv3 = zext i16 %1 to i32
  %tobool4 = icmp ne i32 %conv3, 0
  br i1 %tobool4, label %land.lhs.true5, label %if.end11

land.lhs.true5:                                   ; preds = %land.lhs.true
  %call = call zeroext i1 @qemu_loglevel_mask(i32 noundef 32768)
  br i1 %call, label %if.then, label %if.end11

if.then:                                          ; preds = %land.lhs.true5
  %2 = load i8, ptr @message_with_timestamp, align 1
  %tobool7 = trunc i8 %2 to i1
  br i1 %tobool7, label %if.then8, label %if.else

if.then8:                                         ; preds = %if.then
  %call9 = call i32 @gettimeofday(ptr noundef %_now, ptr noundef null) #18
  %call10 = call i32 @qemu_get_thread_id()
  %tv_sec = getelementptr inbounds %struct.timeval, ptr %_now, i32 0, i32 0
  %3 = load i64, ptr %tv_sec, align 8
  %tv_usec = getelementptr inbounds %struct.timeval, ptr %_now, i32 0, i32 1
  %4 = load i64, ptr %tv_usec, align 8
  %5 = load ptr, ptr %addr.addr, align 8
  %6 = load i32, ptr %count.addr, align 4
  call void (ptr, ...) @qemu_log(ptr noundef @.str.54, i32 noundef %call10, i64 noundef %3, i64 noundef %4, ptr noundef %5, i32 noundef %6)
  br label %if.end

if.else:                                          ; preds = %if.then
  %7 = load ptr, ptr %addr.addr, align 8
  %8 = load i32, ptr %count.addr, align 4
  call void (ptr, ...) @qemu_log(ptr noundef @.str.55, ptr noundef %7, i32 noundef %8)
  br label %if.end

if.end:                                           ; preds = %if.else, %if.then8
  br label %if.end11

if.end11:                                         ; preds = %if.end, %land.lhs.true5, %land.lhs.true, %entry
  ret void
}

; Function Attrs: nounwind sspstrong uwtable
define internal void @glib_autoptr_clear_QemuLockable(ptr noundef %_ptr) #0 {
entry:
  %_ptr.addr = alloca ptr, align 8
  store ptr %_ptr, ptr %_ptr.addr, align 8
  %0 = load ptr, ptr %_ptr.addr, align 8
  %tobool = icmp ne ptr %0, null
  br i1 %tobool, label %if.then, label %if.end

if.then:                                          ; preds = %entry
  %1 = load ptr, ptr %_ptr.addr, align 8
  call void @qemu_lockable_auto_unlock(ptr noundef %1)
  br label %if.end

if.end:                                           ; preds = %if.then, %entry
  ret void
}

; Function Attrs: nounwind sspstrong uwtable
define internal void @qemu_lockable_lock(ptr noundef %x) #0 {
entry:
  %x.addr = alloca ptr, align 8
  store ptr %x, ptr %x.addr, align 8
  %0 = load ptr, ptr %x.addr, align 8
  %lock = getelementptr inbounds %struct.QemuLockable, ptr %0, i32 0, i32 1
  %1 = load ptr, ptr %lock, align 8
  %2 = load ptr, ptr %x.addr, align 8
  %object = getelementptr inbounds %struct.QemuLockable, ptr %2, i32 0, i32 0
  %3 = load ptr, ptr %object, align 8
  call void %1(ptr noundef %3)
  ret void
}

; Function Attrs: nounwind sspstrong uwtable
define dso_local i32 @migrate_send_rp_message_req_pages(ptr noundef %mis, ptr noundef %rb, i64 noundef %start) #0 {
entry:
  %mis.addr = alloca ptr, align 8
  %rb.addr = alloca ptr, align 8
  %start.addr = alloca i64, align 8
  %bufc = alloca [268 x i8], align 16
  %msglen = alloca i64, align 8
  %len = alloca i64, align 8
  %msg_type = alloca i32, align 4
  %rbname = alloca ptr, align 8
  %rbname_len = alloca i32, align 4
  store ptr %mis, ptr %mis.addr, align 8
  store ptr %rb, ptr %rb.addr, align 8
  store i64 %start, ptr %start.addr, align 8
  store i64 12, ptr %msglen, align 8
  %0 = load ptr, ptr %rb.addr, align 8
  %call = call i64 @qemu_ram_pagesize(ptr noundef %0)
  store i64 %call, ptr %len, align 8
  %1 = load i64, ptr %start.addr, align 8
  %call1 = call i64 @cpu_to_be64(i64 noundef %1)
  %arraydecay = getelementptr inbounds [268 x i8], ptr %bufc, i64 0, i64 0
  store i64 %call1, ptr %arraydecay, align 16
  %2 = load i64, ptr %len, align 8
  %conv = trunc i64 %2 to i32
  %call2 = call i32 @cpu_to_be32(i32 noundef %conv)
  %arraydecay3 = getelementptr inbounds [268 x i8], ptr %bufc, i64 0, i64 0
  %add.ptr = getelementptr i8, ptr %arraydecay3, i64 8
  store i32 %call2, ptr %add.ptr, align 4
  %3 = load ptr, ptr %rb.addr, align 8
  %4 = load ptr, ptr %mis.addr, align 8
  %last_rb = getelementptr inbounds %struct.MigrationIncomingState, ptr %4, i32 0, i32 17
  %5 = load ptr, ptr %last_rb, align 8
  %cmp = icmp ne ptr %3, %5
  br i1 %cmp, label %if.then, label %if.else17

if.then:                                          ; preds = %entry
  %6 = load ptr, ptr %rb.addr, align 8
  %7 = load ptr, ptr %mis.addr, align 8
  %last_rb5 = getelementptr inbounds %struct.MigrationIncomingState, ptr %7, i32 0, i32 17
  store ptr %6, ptr %last_rb5, align 8
  %8 = load ptr, ptr %rb.addr, align 8
  %call6 = call ptr @qemu_ram_get_idstr(ptr noundef %8)
  store ptr %call6, ptr %rbname, align 8
  %9 = load ptr, ptr %rbname, align 8
  %call7 = call i64 @strlen(ptr noundef %9) #15
  %conv8 = trunc i64 %call7 to i32
  store i32 %conv8, ptr %rbname_len, align 4
  %10 = load i32, ptr %rbname_len, align 4
  %cmp9 = icmp slt i32 %10, 256
  br i1 %cmp9, label %if.then11, label %if.else

if.then11:                                        ; preds = %if.then
  br label %if.end

if.else:                                          ; preds = %if.then
  call void @__assert_fail(ptr noundef @.str.7, ptr noundef @.str.2, i32 noundef 374, ptr noundef @__PRETTY_FUNCTION__.migrate_send_rp_message_req_pages) #13
  unreachable

if.end:                                           ; preds = %if.then11
  %11 = load i32, ptr %rbname_len, align 4
  %conv12 = trunc i32 %11 to i8
  %12 = load i64, ptr %msglen, align 8
  %inc = add i64 %12, 1
  store i64 %inc, ptr %msglen, align 8
  %arrayidx = getelementptr [268 x i8], ptr %bufc, i64 0, i64 %12
  store i8 %conv12, ptr %arrayidx, align 1
  %arraydecay13 = getelementptr inbounds [268 x i8], ptr %bufc, i64 0, i64 0
  %13 = load i64, ptr %msglen, align 8
  %add.ptr14 = getelementptr i8, ptr %arraydecay13, i64 %13
  %14 = load ptr, ptr %rbname, align 8
  %15 = load i32, ptr %rbname_len, align 4
  %conv15 = sext i32 %15 to i64
  call void @llvm.memcpy.p0.p0.i64(ptr align 1 %add.ptr14, ptr align 1 %14, i64 %conv15, i1 false)
  %16 = load i32, ptr %rbname_len, align 4
  %conv16 = sext i32 %16 to i64
  %17 = load i64, ptr %msglen, align 8
  %add = add i64 %17, %conv16
  store i64 %add, ptr %msglen, align 8
  store i32 3, ptr %msg_type, align 4
  br label %if.end18

if.else17:                                        ; preds = %entry
  store i32 4, ptr %msg_type, align 4
  br label %if.end18

if.end18:                                         ; preds = %if.else17, %if.end
  %18 = load ptr, ptr %mis.addr, align 8
  %19 = load i32, ptr %msg_type, align 4
  %20 = load i64, ptr %msglen, align 8
  %conv19 = trunc i64 %20 to i16
  %arraydecay20 = getelementptr inbounds [268 x i8], ptr %bufc, i64 0, i64 0
  %call21 = call i32 @migrate_send_rp_message(ptr noundef %18, i32 noundef %19, i16 noundef zeroext %conv19, ptr noundef %arraydecay20)
  ret i32 %call21
}

; Function Attrs: nounwind sspstrong uwtable
define internal void @qemu_lockable_auto_unlock(ptr noundef %x) #0 {
entry:
  %x.addr = alloca ptr, align 8
  store ptr %x, ptr %x.addr, align 8
  %0 = load ptr, ptr %x.addr, align 8
  %tobool = icmp ne ptr %0, null
  br i1 %tobool, label %if.then, label %if.end

if.then:                                          ; preds = %entry
  %1 = load ptr, ptr %x.addr, align 8
  call void @qemu_lockable_unlock(ptr noundef %1)
  br label %if.end

if.end:                                           ; preds = %if.then, %entry
  ret void
}

; Function Attrs: nounwind sspstrong uwtable
define internal void @trace_postcopy_page_req_add(ptr noundef %addr, i32 noundef %count) #0 {
entry:
  %addr.addr = alloca ptr, align 8
  %count.addr = alloca i32, align 4
  store ptr %addr, ptr %addr.addr, align 8
  store i32 %count, ptr %count.addr, align 4
  %0 = load ptr, ptr %addr.addr, align 8
  %1 = load i32, ptr %count.addr, align 4
  call void @_nocheck__trace_postcopy_page_req_add(ptr noundef %0, i32 noundef %1)
  ret void
}

; Function Attrs: nounwind sspstrong uwtable
define internal void @glib_autoptr_cleanup_QemuLockable(ptr noundef %_ptr) #0 {
entry:
  %_ptr.addr = alloca ptr, align 8
  store ptr %_ptr, ptr %_ptr.addr, align 8
  %0 = load ptr, ptr %_ptr.addr, align 8
  %1 = load ptr, ptr %0, align 8
  call void @glib_autoptr_clear_QemuLockable(ptr noundef %1)
  ret void
}

; Function Attrs: nounwind sspstrong uwtable
define internal ptr @qemu_lockable_auto_lock(ptr noundef %x) #0 {
entry:
  %x.addr = alloca ptr, align 8
  store ptr %x, ptr %x.addr, align 8
  %0 = load ptr, ptr %x.addr, align 8
  call void @qemu_lockable_lock(ptr noundef %0)
  %1 = load ptr, ptr %x.addr, align 8
  ret ptr %1
}

; Function Attrs: nounwind sspstrong uwtable
define dso_local i32 @migrate_send_rp_req_pages(ptr noundef %mis, ptr noundef %rb, i64 noundef %start, i64 noundef %haddr) #0 {
entry:
  %retval = alloca i32, align 4
  %mis.addr = alloca ptr, align 8
  %rb.addr = alloca ptr, align 8
  %start.addr = alloca i64, align 8
  %haddr.addr = alloca i64, align 8
  %aligned = alloca ptr, align 8
  %received = alloca i8, align 1
  %qemu_lockable_auto7 = alloca ptr, align 8
  %.compoundliteral = alloca %struct.QemuLockable, align 8
  %.atomictmp = alloca i32, align 4
  %atomic-temp = alloca i32, align 4
  store ptr %mis, ptr %mis.addr, align 8
  store ptr %rb, ptr %rb.addr, align 8
  store i64 %start, ptr %start.addr, align 8
  store i64 %haddr, ptr %haddr.addr, align 8
  %0 = load i64, ptr %haddr.addr, align 8
  %1 = load ptr, ptr %rb.addr, align 8
  %call = call i64 @qemu_ram_pagesize(ptr noundef %1)
  %sub = sub i64 0, %call
  %and = and i64 %0, %sub
  %2 = inttoptr i64 %and to ptr
  store ptr %2, ptr %aligned, align 8
  store i8 0, ptr %received, align 1
  %object = getelementptr inbounds %struct.QemuLockable, ptr %.compoundliteral, i32 0, i32 0
  %3 = load ptr, ptr %mis.addr, align 8
  %page_request_mutex = getelementptr inbounds %struct.MigrationIncomingState, ptr %3, i32 0, i32 39
  store ptr %page_request_mutex, ptr %object, align 8
  %lock = getelementptr inbounds %struct.QemuLockable, ptr %.compoundliteral, i32 0, i32 1
  store ptr @qemu_mutex_lock, ptr %lock, align 8
  %unlock = getelementptr inbounds %struct.QemuLockable, ptr %.compoundliteral, i32 0, i32 2
  store ptr @qemu_mutex_unlock, ptr %unlock, align 8
  %call1 = call ptr @qemu_lockable_auto_lock(ptr noundef %.compoundliteral)
  store ptr %call1, ptr %qemu_lockable_auto7, align 8
  br label %for.cond

for.cond:                                         ; preds = %for.inc, %entry
  %4 = load ptr, ptr %qemu_lockable_auto7, align 8
  %tobool = icmp ne ptr %4, null
  br i1 %tobool, label %for.body, label %for.cond.cleanup

for.cond.cleanup:                                 ; preds = %for.cond
  call void @glib_autoptr_cleanup_QemuLockable(ptr noundef %qemu_lockable_auto7)
  br label %for.end

for.body:                                         ; preds = %for.cond
  %5 = load ptr, ptr %rb.addr, align 8
  %6 = load i64, ptr %start.addr, align 8
  %call2 = call zeroext i1 @ramblock_recv_bitmap_test_byte_offset(ptr noundef %5, i64 noundef %6)
  %frombool = zext i1 %call2 to i8
  store i8 %frombool, ptr %received, align 1
  %7 = load i8, ptr %received, align 1
  %tobool3 = trunc i8 %7 to i1
  br i1 %tobool3, label %if.end, label %land.lhs.true

land.lhs.true:                                    ; preds = %for.body
  %8 = load ptr, ptr %mis.addr, align 8
  %page_requested = getelementptr inbounds %struct.MigrationIncomingState, ptr %8, i32 0, i32 37
  %9 = load ptr, ptr %page_requested, align 8
  %10 = load ptr, ptr %aligned, align 8
  %call4 = call ptr @g_tree_lookup(ptr noundef %9, ptr noundef %10)
  %tobool5 = icmp ne ptr %call4, null
  br i1 %tobool5, label %if.end, label %if.then

if.then:                                          ; preds = %land.lhs.true
  %11 = load ptr, ptr %mis.addr, align 8
  %page_requested6 = getelementptr inbounds %struct.MigrationIncomingState, ptr %11, i32 0, i32 37
  %12 = load ptr, ptr %page_requested6, align 8
  %13 = load ptr, ptr %aligned, align 8
  %14 = inttoptr i64 1 to ptr
  call void @g_tree_insert(ptr noundef %12, ptr noundef %13, ptr noundef %14)
  %15 = load ptr, ptr %mis.addr, align 8
  %page_requested_count = getelementptr inbounds %struct.MigrationIncomingState, ptr %15, i32 0, i32 38
  store i32 1, ptr %.atomictmp, align 4
  %16 = load i32, ptr %.atomictmp, align 4
  %17 = atomicrmw add ptr %page_requested_count, i32 %16 seq_cst, align 8
  store i32 %17, ptr %atomic-temp, align 4
  %18 = load ptr, ptr %aligned, align 8
  %19 = load ptr, ptr %mis.addr, align 8
  %page_requested_count7 = getelementptr inbounds %struct.MigrationIncomingState, ptr %19, i32 0, i32 38
  %20 = load i32, ptr %page_requested_count7, align 8
  call void @trace_postcopy_page_req_add(ptr noundef %18, i32 noundef %20)
  br label %if.end

if.end:                                           ; preds = %if.then, %land.lhs.true, %for.body
  br label %for.inc

for.inc:                                          ; preds = %if.end
  %21 = load ptr, ptr %qemu_lockable_auto7, align 8
  call void @qemu_lockable_auto_unlock(ptr noundef %21)
  store ptr null, ptr %qemu_lockable_auto7, align 8
  br label %for.cond, !llvm.loop !9

for.end:                                          ; preds = %for.cond.cleanup
  %22 = load i8, ptr %received, align 1
  %tobool8 = trunc i8 %22 to i1
  br i1 %tobool8, label %if.then9, label %if.end10

if.then9:                                         ; preds = %for.end
  store i32 0, ptr %retval, align 4
  br label %return

if.end10:                                         ; preds = %for.end
  %23 = load ptr, ptr %mis.addr, align 8
  %24 = load ptr, ptr %rb.addr, align 8
  %25 = load i64, ptr %start.addr, align 8
  %call11 = call i32 @migrate_send_rp_message_req_pages(ptr noundef %23, ptr noundef %24, i64 noundef %25)
  store i32 %call11, ptr %retval, align 4
  br label %return

return:                                           ; preds = %if.end10, %if.then9
  %26 = load i32, ptr %retval, align 4
  ret i32 %26
}