; Function Attrs: nounwind sspstrong uwtable
define dso_local i32 @migrate_send_rp_req_pages(ptr noundef %mis, ptr noundef %rb, i64 noundef %start, i64 noundef %haddr) local_unnamed_addr #0 {
for.body.us:
  %bufc.i = alloca [268 x i8], align 16
  %_now.i.i = alloca %struct.timeval, align 8
  %call = tail call i64 @qemu_ram_pagesize(ptr noundef %rb) #19
  %sub = sub i64 0, %call
  %and = and i64 %haddr, %sub
  %0 = inttoptr i64 %and to ptr
  %page_request_mutex = getelementptr inbounds nuw i8, ptr %mis, i64 1072
  %1 = load atomic i64, ptr @qemu_mutex_lock_func monotonic, align 8
  %2 = inttoptr i64 %1 to ptr
  tail call void %2(ptr noundef nonnull %page_request_mutex, ptr noundef nonnull @.str.53, i32 noundef 122) #19
  %page_requested = getelementptr inbounds nuw i8, ptr %mis, i64 1056
  %page_requested_count = getelementptr inbounds nuw i8, ptr %mis, i64 1064
  %tv_usec.i.i = getelementptr inbounds nuw i8, ptr %_now.i.i, i64 8
  %call2.us = tail call zeroext i1 @ramblock_recv_bitmap_test_byte_offset(ptr noundef %rb, i64 noundef %start) #19
  br i1 %call2.us, label %return.critedge, label %land.lhs.true.us

land.lhs.true.us:                                 ; preds = %for.body.us
  %3 = load ptr, ptr %page_requested, align 8
  %call4.us = tail call ptr @g_tree_lookup(ptr noundef %3, ptr noundef %0) #19
  %tobool5.not.us = icmp eq ptr %call4.us, null
  br i1 %tobool5.not.us, label %if.then.us, label %if.end10

if.then.us:                                       ; preds = %land.lhs.true.us
  %4 = load ptr, ptr %page_requested, align 8
  tail call void @g_tree_insert(ptr noundef %4, ptr noundef %0, ptr noundef nonnull inttoptr (i64 1 to ptr)) #19
  %5 = atomicrmw add ptr %page_requested_count, i32 1 seq_cst, align 8
  %6 = load i32, ptr %page_requested_count, align 8
  call void @llvm.lifetime.start.p0(i64 16, ptr nonnull %_now.i.i)
  %7 = load i32, ptr @trace_events_enabled_count, align 4
  %tobool.i.i.us = icmp ne i32 %7, 0
  %8 = load i16, ptr @_TRACE_POSTCOPY_PAGE_REQ_ADD_DSTATE, align 2
  %tobool4.i.i.us = icmp ne i16 %8, 0
  %or.cond.i.i.us = select i1 %tobool.i.i.us, i1 %tobool4.i.i.us, i1 false
  br i1 %or.cond.i.i.us, label %land.lhs.true5.i.i.us, label %trace_postcopy_page_req_add.exit.us

land.lhs.true5.i.i.us:                            ; preds = %if.then.us
  %9 = load i32, ptr @qemu_loglevel, align 4
  %and.i.i.i.us = and i32 %9, 32768
  %cmp.i.not.i.i.us = icmp eq i32 %and.i.i.i.us, 0
  br i1 %cmp.i.not.i.i.us, label %trace_postcopy_page_req_add.exit.us, label %if.then.i.i.us

if.then.i.i.us:                                   ; preds = %land.lhs.true5.i.i.us
  %10 = load i8, ptr @message_with_timestamp, align 1
  %tobool7.i.i.us = trunc i8 %10 to i1
  br i1 %tobool7.i.i.us, label %if.then8.i.i.us, label %if.else.i.i.us

if.else.i.i.us:                                   ; preds = %if.then.i.i.us
  tail call void (ptr, ...) @qemu_log(ptr noundef nonnull @.str.55, ptr noundef %0, i32 noundef %6) #19
  br label %trace_postcopy_page_req_add.exit.us

if.then8.i.i.us:                                  ; preds = %if.then.i.i.us
  %call9.i.i.us = call i32 @gettimeofday(ptr noundef nonnull %_now.i.i, ptr noundef null) #19
  %call10.i.i.us = tail call i32 @qemu_get_thread_id() #19
  %11 = load i64, ptr %_now.i.i, align 8
  %12 = load i64, ptr %tv_usec.i.i, align 8
  tail call void (ptr, ...) @qemu_log(ptr noundef nonnull @.str.54, i32 noundef %call10.i.i.us, i64 noundef %11, i64 noundef %12, ptr noundef %0, i32 noundef %6) #19
  br label %trace_postcopy_page_req_add.exit.us

trace_postcopy_page_req_add.exit.us:              ; preds = %if.then8.i.i.us, %if.else.i.i.us, %land.lhs.true5.i.i.us, %if.then.us
  call void @llvm.lifetime.end.p0(i64 16, ptr nonnull %_now.i.i)
  br label %if.end10

if.end10:                                         ; preds = %land.lhs.true.us, %trace_postcopy_page_req_add.exit.us
  tail call void @qemu_mutex_unlock_impl(ptr noundef nonnull %page_request_mutex, ptr noundef nonnull @.str.53, i32 noundef 132) #19
  call void @llvm.lifetime.start.p0(i64 268, ptr nonnull %bufc.i)
  %call.i = tail call i64 @qemu_ram_pagesize(ptr noundef %rb) #19
  %13 = tail call noundef i64 @llvm.bswap.i64(i64 %start)
  store i64 %13, ptr %bufc.i, align 16
  %conv.i = trunc i64 %call.i to i32
  %14 = tail call noundef i32 @llvm.bswap.i32(i32 %conv.i)
  %add.ptr.i = getelementptr inbounds nuw i8, ptr %bufc.i, i64 8
  store i32 %14, ptr %add.ptr.i, align 8
  %last_rb.i = getelementptr inbounds nuw i8, ptr %mis, i64 336
  %15 = load ptr, ptr %last_rb.i, align 8
  %cmp.not.i = icmp eq ptr %rb, %15
  br i1 %cmp.not.i, label %migrate_send_rp_message_req_pages.exit, label %if.then.i14

if.then.i14:                                      ; preds = %if.end10
  store ptr %rb, ptr %last_rb.i, align 8
  %call6.i = tail call ptr @qemu_ram_get_idstr(ptr noundef %rb) #19
  %call7.i = tail call i64 @strlen(ptr noundef nonnull dereferenceable(1) %call6.i) #22
  %conv8.i = trunc i64 %call7.i to i32
  %cmp9.i = icmp slt i32 %conv8.i, 256
  br i1 %cmp9.i, label %if.end.i, label %if.else.i

if.else.i:                                        ; preds = %if.then.i14
  tail call void @__assert_fail(ptr noundef nonnull @.str.7, ptr noundef nonnull @.str.2, i32 noundef 374, ptr noundef nonnull @__PRETTY_FUNCTION__.migrate_send_rp_message_req_pages) #20
  unreachable

if.end.i:                                         ; preds = %if.then.i14
  %conv12.i = trunc i64 %call7.i to i8
  %arrayidx.i = getelementptr inbounds nuw i8, ptr %bufc.i, i64 12
  store i8 %conv12.i, ptr %arrayidx.i, align 4
  %add.ptr14.i = getelementptr inbounds nuw i8, ptr %bufc.i, i64 13
  %sext.i = shl i64 %call7.i, 32
  %conv15.i = ashr exact i64 %sext.i, 32
  call void @llvm.memcpy.p0.p0.i64(ptr nonnull align 1 %add.ptr14.i, ptr nonnull align 1 %call6.i, i64 %conv15.i, i1 false)
  %16 = trunc i64 %call7.i to i16
  %17 = add i16 %16, 13
  br label %migrate_send_rp_message_req_pages.exit

migrate_send_rp_message_req_pages.exit:           ; preds = %if.end10, %if.end.i
  %msg_type.0.i = phi i32 [ 3, %if.end.i ], [ 4, %if.end10 ]
  %msglen.0.i = phi i16 [ %17, %if.end.i ], [ 12, %if.end10 ]
  %call21.i = call fastcc i32 @migrate_send_rp_message(ptr noundef nonnull %mis, i32 noundef %msg_type.0.i, i16 noundef zeroext %msglen.0.i, ptr noundef nonnull %bufc.i)
  call void @llvm.lifetime.end.p0(i64 268, ptr nonnull %bufc.i)
  br label %return

return.critedge:                                  ; preds = %for.body.us
  tail call void @qemu_mutex_unlock_impl(ptr noundef nonnull %page_request_mutex, ptr noundef nonnull @.str.53, i32 noundef 132) #19
  br label %return

return:                                           ; preds = %return.critedge, %migrate_send_rp_message_req_pages.exit
  %retval.0 = phi i32 [ %call21.i, %migrate_send_rp_message_req_pages.exit ], [ 0, %return.critedge ]
  ret i32 %retval.0
}